; Function Attrs: mustprogress uwtable
define hidden noundef zeroext i1 @_ZNK6spacer9iuc_proof12is_core_pureEP4expr(ptr noundef nonnull align 8 dereferenceable(240) %0, ptr noundef %1) local_unnamed_addr #3 align 2 personality ptr @__gxx_personality_v0 {
  %3 = alloca %class.obj_mark, align 8
  %4 = alloca %"class.spacer::is_pure_expr_proc", align 8
  call void @llvm.lifetime.start.p0(i64 24, ptr nonnull %4) #20
  %5 = getelementptr inbounds nuw i8, ptr %0, i64 216
  %6 = load ptr, ptr %0, align 8, !tbaa !42
  store ptr %5, ptr %4, align 8, !tbaa !37
  %7 = getelementptr inbounds nuw i8, ptr %4, i64 8
  call void @_ZN10array_utilC1ER11ast_manager(ptr noundef nonnull align 8 dereferenceable(16) %7, ptr noundef nonnull align 8 dereferenceable(976) %6)
  call void @llvm.lifetime.start.p0(i64 24, ptr nonnull %3) #20
  %8 = getelementptr inbounds nuw i8, ptr %3, i64 8
  call void @llvm.memset.p0.i64(ptr noundef nonnull align 8 dereferenceable(16) %8, i8 0, i64 16, i1 false)
  invoke void @_Z18for_each_expr_coreIN6spacer17is_pure_expr_procE8obj_markI4expr10bit_vector14default_t2uintIS3_EELb0ELb0EEvRT_RT0_PS3_(ptr noundef nonnull align 8 dereferenceable(24) %4, ptr noundef nonnull align 8 dereferenceable(24) %3, ptr noundef %1)
          to label %9 unwind label %.body

9:                                                ; preds = %2
  %10 = getelementptr inbounds nuw i8, ptr %3, i64 16
  %11 = load ptr, ptr %10, align 8, !tbaa !39
  %12 = icmp eq ptr %11, null
  br i1 %12, label %_Z13for_each_exprIN6spacer17is_pure_expr_procEEvRT_P4expr.exit, label %13

13:                                               ; preds = %9
  invoke void @_ZN6memory10deallocateEPv(ptr noundef nonnull %11)
          to label %_Z13for_each_exprIN6spacer17is_pure_expr_procEEvRT_P4expr.exit unwind label %14

14:                                               ; preds = %13
  %15 = landingpad { ptr, i32 }
          catch ptr null
  %16 = extractvalue { ptr, i32 } %15, 0
  call void @__clang_call_terminate(ptr %16) #21
  unreachable

.body:                                            ; preds = %2
  %17 = landingpad { ptr, i32 }
          cleanup
          catch ptr @_ZTIN6spacer17is_pure_expr_proc8non_pureE
  call void @_ZN8obj_markI4expr10bit_vector14default_t2uintIS0_EED2Ev(ptr noundef nonnull align 8 dereferenceable(24) %3) #20
  call void @llvm.lifetime.end.p0(i64 24, ptr nonnull %3) #20
  %18 = extractvalue { ptr, i32 } %17, 1
  %19 = call i32 @llvm.eh.typeid.for.p0(ptr nonnull @_ZTIN6spacer17is_pure_expr_proc8non_pureE) #20
  %20 = icmp eq i32 %18, %19
  br i1 %20, label %21, label %25

_Z13for_each_exprIN6spacer17is_pure_expr_procEEvRT_P4expr.exit: ; preds = %9, %13
  call void @llvm.lifetime.end.p0(i64 24, ptr nonnull %3) #20
  br label %24

21:                                               ; preds = %.body
  %22 = extractvalue { ptr, i32 } %17, 0
  %23 = call ptr @__cxa_begin_catch(ptr %22) #20
  call void @__cxa_end_catch()
  br label %24

24:                                               ; preds = %_Z13for_each_exprIN6spacer17is_pure_expr_procEEvRT_P4expr.exit, %21
  %.0 = phi i1 [ false, %21 ], [ true, %_Z13for_each_exprIN6spacer17is_pure_expr_procEEvRT_P4expr.exit ]
  call void @llvm.lifetime.end.p0(i64 24, ptr nonnull %4) #20
  ret i1 %.0

25:                                               ; preds = %.body
  call void @llvm.lifetime.end.p0(i64 24, ptr nonnull %4) #20
  resume { ptr, i32 } %17
}